target datalayout = "e-m:e-p270:32:32-p271:32:32-p272:64:64-i64:64-i128:128-f80:128-n8:16:32:64-S128"
target triple = "x86_64-pc-linux-gnu"

%struct.ResourceOwnerDesc = type { ptr, i32, i32, ptr, ptr }
%struct.buftag = type { i32, i32, i32, i32, i32 }
%struct.SMgrRelationData = type { %struct.RelFileLocatorBackend, i32, [4 x i32], i32, [4 x i32], [4 x ptr], i32, %struct.dlist_node }
%struct.RelFileLocatorBackend = type { %struct.RelFileLocator, i32 }
%struct.RelFileLocator = type { i32, i32, i32 }
%struct.dlist_node = type { ptr, ptr }
%struct.LocalBufferLookupEnt = type { %struct.buftag, i32 }
%struct.BufferDesc = type { %struct.buftag, i32, %struct.pg_atomic_uint32, i32, i32, %struct.LWLock }
%struct.pg_atomic_uint32 = type { i32 }
%struct.LWLock = type { i16, %struct.pg_atomic_uint32, %struct.proclist_head }
%struct.proclist_head = type { i32, i32 }

@LocalBufferDescriptors = dso_local global ptr null, align 8
@LocalRefCount = dso_local global ptr null, align 8
@LocalBufHash = internal global ptr null, align 8
@CurrentResourceOwner = external global ptr, align 8
@.str = private unnamed_addr constant [34 x i8] c"local buffer hash table corrupted\00", align 1
@.str.1 = private unnamed_addr constant [11 x i8] c"localbuf.c\00", align 1
@__func__.LocalBufferAlloc = private unnamed_addr constant [17 x i8] c"LocalBufferAlloc\00", align 1
@NLocalPinnedBuffers = internal global i32 0, align 4
@buffer_pin_resowner_desc = external constant %struct.ResourceOwnerDesc, align 8

; Function Attrs: inlinehint nounwind uwtable
define internal i64 @Int32GetDatum(i32 noundef %0) #3 {
  %2 = alloca i32, align 4
  store i32 %0, ptr %2, align 4
  %3 = load i32, ptr %2, align 4
  %4 = sext i32 %3 to i64
  ret i64 %4
}

; Function Attrs: inlinehint nounwind uwtable
define internal void @pg_atomic_unlocked_write_u32_impl(ptr noundef %0, i32 noundef %1) #3 {
  %3 = alloca ptr, align 8
  %4 = alloca i32, align 4
  store ptr %0, ptr %3, align 8
  store i32 %1, ptr %4, align 4
  %5 = load i32, ptr %4, align 4
  %6 = load ptr, ptr %3, align 8
  %7 = getelementptr inbounds nuw %struct.pg_atomic_uint32, ptr %6, i32 0, i32 0
  store volatile i32 %5, ptr %7, align 4
  ret void
}

; Function Attrs: inlinehint nounwind uwtable
define internal i32 @pg_atomic_read_u32_impl(ptr noundef %0) #3 {
  %2 = alloca ptr, align 8
  store ptr %0, ptr %2, align 8
  %3 = load ptr, ptr %2, align 8
  %4 = getelementptr inbounds nuw %struct.pg_atomic_uint32, ptr %3, i32 0, i32 0
  %5 = load volatile i32, ptr %4, align 4
  ret i32 %5
}

; Function Attrs: inlinehint nounwind uwtable
define internal void @ResourceOwnerRememberBuffer(ptr noundef %0, i32 noundef %1) #3 {
  %3 = alloca ptr, align 8
  %4 = alloca i32, align 4
  store ptr %0, ptr %3, align 8
  store i32 %1, ptr %4, align 4
  %5 = load ptr, ptr %3, align 8
  %6 = load i32, ptr %4, align 4
  %7 = call i64 @Int32GetDatum(i32 noundef %6)
  call void @ResourceOwnerRemember(ptr noundef %5, i64 noundef %7, ptr noundef @buffer_pin_resowner_desc)
  ret void
}

; Function Attrs: inlinehint nounwind uwtable
define internal i32 @BufferDescriptorGetBuffer(ptr noundef %0) #3 {
  %2 = alloca ptr, align 8
  store ptr %0, ptr %2, align 8
  %3 = load ptr, ptr %2, align 8
  %4 = getelementptr inbounds nuw %struct.BufferDesc, ptr %3, i32 0, i32 1
  %5 = load i32, ptr %4, align 4
  %6 = add i32 %5, 1
  ret i32 %6
}

; Function Attrs: inlinehint nounwind uwtable
define internal void @BufTagSetRelForkDetails(ptr noundef %0, i32 noundef %1, i32 noundef %2) #3 {
  %4 = alloca ptr, align 8
  %5 = alloca i32, align 4
  %6 = alloca i32, align 4
  store ptr %0, ptr %4, align 8
  store i32 %1, ptr %5, align 4
  store i32 %2, ptr %6, align 4
  %7 = load i32, ptr %5, align 4
  %8 = load ptr, ptr %4, align 8
  %9 = getelementptr inbounds nuw %struct.buftag, ptr %8, i32 0, i32 2
  store i32 %7, ptr %9, align 4
  %10 = load i32, ptr %6, align 4
  %11 = load ptr, ptr %4, align 8
  %12 = getelementptr inbounds nuw %struct.buftag, ptr %11, i32 0, i32 3
  store i32 %10, ptr %12, align 4
  ret void
}

; Function Attrs: inlinehint nounwind uwtable
define internal void @pg_atomic_unlocked_write_u32(ptr noundef %0, i32 noundef %1) #3 {
  %3 = alloca ptr, align 8
  %4 = alloca i32, align 4
  store ptr %0, ptr %3, align 8
  store i32 %1, ptr %4, align 4
  %5 = load ptr, ptr %3, align 8
  %6 = load i32, ptr %4, align 4
  call void @pg_atomic_unlocked_write_u32_impl(ptr noundef %5, i32 noundef %6)
  ret void
}

; Function Attrs: inlinehint nounwind uwtable
define internal i32 @pg_atomic_read_u32(ptr noundef %0) #3 {
  %2 = alloca ptr, align 8
  store ptr %0, ptr %2, align 8
  %3 = load ptr, ptr %2, align 8
  %4 = call i32 @pg_atomic_read_u32_impl(ptr noundef %3)
  ret i32 %4
}

; Function Attrs: nounwind uwtable
define dso_local zeroext i1 @PinLocalBuffer(ptr noundef %0, i1 noundef zeroext %1) #0 {
  %3 = alloca ptr, align 8
  %4 = alloca i8, align 1
  %5 = alloca i32, align 4
  %6 = alloca i32, align 4
  %7 = alloca i32, align 4
  store ptr %0, ptr %3, align 8
  %8 = zext i1 %1 to i8
  store i8 %8, ptr %4, align 1
  call void @llvm.lifetime.start.p0(i64 4, ptr %5) #9
  call void @llvm.lifetime.start.p0(i64 4, ptr %6) #9
  %9 = load ptr, ptr %3, align 8
  %10 = call i32 @BufferDescriptorGetBuffer(ptr noundef %9)
  store i32 %10, ptr %6, align 4
  call void @llvm.lifetime.start.p0(i64 4, ptr %7) #9
  %11 = load i32, ptr %6, align 4
  %12 = sub i32 0, %11
  %13 = sub i32 %12, 1
  store i32 %13, ptr %7, align 4
  %14 = load ptr, ptr %3, align 8
  %15 = getelementptr inbounds nuw %struct.BufferDesc, ptr %14, i32 0, i32 2
  %16 = call i32 @pg_atomic_read_u32(ptr noundef %15)
  store i32 %16, ptr %5, align 4
  %17 = load ptr, ptr @LocalRefCount, align 8
  %18 = load i32, ptr %7, align 4
  %19 = sext i32 %18 to i64
  %20 = getelementptr inbounds i32, ptr %17, i64 %19
  %21 = load i32, ptr %20, align 4
  %22 = icmp eq i32 %21, 0
  br i1 %22, label %23, label %40

23:                                               ; preds = %2
  %24 = load i32, ptr @NLocalPinnedBuffers, align 4
  %25 = add i32 %24, 1
  store i32 %25, ptr @NLocalPinnedBuffers, align 4
  %26 = load i8, ptr %4, align 1, !range !6, !noundef !7
  %27 = trunc i8 %26 to i1
  br i1 %27, label %28, label %39

28:                                               ; preds = %23
  %29 = load i32, ptr %5, align 4
  %30 = and i32 %29, 3932160
  %31 = lshr i32 %30, 18
  %32 = icmp ult i32 %31, 5
  br i1 %32, label %33, label %39

33:                                               ; preds = %28
  %34 = load i32, ptr %5, align 4
  %35 = add i32 %34, 262144
  store i32 %35, ptr %5, align 4
  %36 = load ptr, ptr %3, align 8
  %37 = getelementptr inbounds nuw %struct.BufferDesc, ptr %36, i32 0, i32 2
  %38 = load i32, ptr %5, align 4
  call void @pg_atomic_unlocked_write_u32(ptr noundef %37, i32 noundef %38)
  br label %39

39:                                               ; preds = %33, %28, %23
  br label %40

40:                                               ; preds = %39, %2
  %41 = load ptr, ptr @LocalRefCount, align 8
  %42 = load i32, ptr %7, align 4
  %43 = sext i32 %42 to i64
  %44 = getelementptr inbounds i32, ptr %41, i64 %43
  %45 = load i32, ptr %44, align 4
  %46 = add i32 %45, 1
  store i32 %46, ptr %44, align 4
  %47 = load ptr, ptr @CurrentResourceOwner, align 8
  %48 = load ptr, ptr %3, align 8
  %49 = call i32 @BufferDescriptorGetBuffer(ptr noundef %48)
  call void @ResourceOwnerRememberBuffer(ptr noundef %47, i32 noundef %49)
  %50 = load i32, ptr %5, align 4
  %51 = and i32 %50, 16777216
  %52 = icmp ne i32 %51, 0
  call void @llvm.lifetime.end.p0(i64 4, ptr %7) #9
  call void @llvm.lifetime.end.p0(i64 4, ptr %6) #9
  call void @llvm.lifetime.end.p0(i64 4, ptr %5) #9
  ret i1 %52
}

; Function Attrs: inlinehint nounwind uwtable
define internal ptr @GetLocalBufferDescriptor(i32 noundef %0) #3 {
  %2 = alloca i32, align 4
  store i32 %0, ptr %2, align 4
  %3 = load ptr, ptr @LocalBufferDescriptors, align 8
  %4 = load i32, ptr %2, align 4
  %5 = zext i32 %4 to i64
  %6 = getelementptr inbounds nuw %struct.BufferDesc, ptr %3, i64 %5
  ret ptr %6
}

; Function Attrs: inlinehint nounwind uwtable
define internal void @InitBufferTag(ptr noundef %0, ptr noundef %1, i32 noundef %2, i32 noundef %3) #3 {
  %5 = alloca ptr, align 8
  %6 = alloca ptr, align 8
  %7 = alloca i32, align 4
  %8 = alloca i32, align 4
  store ptr %0, ptr %5, align 8
  store ptr %1, ptr %6, align 8
  store i32 %2, ptr %7, align 4
  store i32 %3, ptr %8, align 4
  %9 = load ptr, ptr %6, align 8
  %10 = getelementptr inbounds nuw %struct.RelFileLocator, ptr %9, i32 0, i32 0
  %11 = load i32, ptr %10, align 4
  %12 = load ptr, ptr %5, align 8
  %13 = getelementptr inbounds nuw %struct.buftag, ptr %12, i32 0, i32 0
  store i32 %11, ptr %13, align 4
  %14 = load ptr, ptr %6, align 8
  %15 = getelementptr inbounds nuw %struct.RelFileLocator, ptr %14, i32 0, i32 1
  %16 = load i32, ptr %15, align 4
  %17 = load ptr, ptr %5, align 8
  %18 = getelementptr inbounds nuw %struct.buftag, ptr %17, i32 0, i32 1
  store i32 %16, ptr %18, align 4
  %19 = load ptr, ptr %5, align 8
  %20 = load ptr, ptr %6, align 8
  %21 = getelementptr inbounds nuw %struct.RelFileLocator, ptr %20, i32 0, i32 2
  %22 = load i32, ptr %21, align 4
  %23 = load i32, ptr %7, align 4
  call void @BufTagSetRelForkDetails(ptr noundef %19, i32 noundef %22, i32 noundef %23)
  %24 = load i32, ptr %8, align 4
  %25 = load ptr, ptr %5, align 8
  %26 = getelementptr inbounds nuw %struct.buftag, ptr %25, i32 0, i32 4
  store i32 %24, ptr %26, align 4
  ret void
}

; Function Attrs: nounwind uwtable
define dso_local ptr @LocalBufferAlloc(ptr noundef %0, i32 noundef %1, i32 noundef %2, ptr noundef %3) #0 {
  %5 = alloca ptr, align 8
  %6 = alloca i32, align 4
  %7 = alloca i32, align 4
  %8 = alloca ptr, align 8
  %9 = alloca %struct.buftag, align 4
  %10 = alloca ptr, align 8
  %11 = alloca ptr, align 8
  %12 = alloca i32, align 4
  %13 = alloca i32, align 4
  %14 = alloca i8, align 1
  %15 = alloca i32, align 4
  store ptr %0, ptr %5, align 8
  store i32 %1, ptr %6, align 4
  store i32 %2, ptr %7, align 4
  store ptr %3, ptr %8, align 8
  call void @llvm.lifetime.start.p0(i64 20, ptr %9) #9
  call void @llvm.lifetime.start.p0(i64 8, ptr %10) #9
  call void @llvm.lifetime.start.p0(i64 8, ptr %11) #9
  call void @llvm.lifetime.start.p0(i64 4, ptr %12) #9
  call void @llvm.lifetime.start.p0(i64 4, ptr %13) #9
  call void @llvm.lifetime.start.p0(i64 1, ptr %14) #9
  %16 = load ptr, ptr %5, align 8
  %17 = getelementptr inbounds nuw %struct.SMgrRelationData, ptr %16, i32 0, i32 0
  %18 = getelementptr inbounds nuw %struct.RelFileLocatorBackend, ptr %17, i32 0, i32 0
  %19 = load i32, ptr %6, align 4
  %20 = load i32, ptr %7, align 4
  call void @InitBufferTag(ptr noundef %9, ptr noundef %18, i32 noundef %19, i32 noundef %20)
  %21 = load ptr, ptr @LocalBufHash, align 8
  %22 = icmp eq ptr %21, null
  br i1 %22, label %23, label %24

23:                                               ; preds = %4
  call void @InitLocalBuffers()
  br label %24

24:                                               ; preds = %23, %4
  %25 = load ptr, ptr @CurrentResourceOwner, align 8
  call void @ResourceOwnerEnlarge(ptr noundef %25)
  %26 = load ptr, ptr @LocalBufHash, align 8
  %27 = call ptr @hash_search(ptr noundef %26, ptr noundef %9, i32 noundef 0, ptr noundef null)
  store ptr %27, ptr %10, align 8
  %28 = load ptr, ptr %10, align 8
  %29 = icmp ne ptr %28, null
  br i1 %29, label %30, label %40

30:                                               ; preds = %24
  %31 = load ptr, ptr %10, align 8
  %32 = getelementptr inbounds nuw %struct.LocalBufferLookupEnt, ptr %31, i32 0, i32 1
  %33 = load i32, ptr %32, align 4
  store i32 %33, ptr %13, align 4
  %34 = load i32, ptr %13, align 4
  %35 = call ptr @GetLocalBufferDescriptor(i32 noundef %34)
  store ptr %35, ptr %11, align 8
  %36 = load ptr, ptr %11, align 8
  %37 = call zeroext i1 @PinLocalBuffer(ptr noundef %36, i1 noundef zeroext true)
  %38 = load ptr, ptr %8, align 8
  %39 = zext i1 %37 to i8
  store i8 %39, ptr %38, align 1
  br label %79

40:                                               ; preds = %24
  call void @llvm.lifetime.start.p0(i64 4, ptr %15) #9
  %41 = call i32 @GetLocalVictimBuffer()
  store i32 %41, ptr %12, align 4
  %42 = load i32, ptr %12, align 4
  %43 = sub i32 0, %42
  %44 = sub i32 %43, 1
  store i32 %44, ptr %13, align 4
  %45 = load i32, ptr %13, align 4
  %46 = call ptr @GetLocalBufferDescriptor(i32 noundef %45)
  store ptr %46, ptr %11, align 8
  %47 = load ptr, ptr @LocalBufHash, align 8
  %48 = call ptr @hash_search(ptr noundef %47, ptr noundef %9, i32 noundef 1, ptr noundef %14)
  store ptr %48, ptr %10, align 8
  %49 = load i8, ptr %14, align 1, !range !6, !noundef !7
  %50 = trunc i8 %49 to i1
  br i1 %50, label %51, label %62

51:                                               ; preds = %40
  br label %52

52:                                               ; preds = %51
  br i1 true, label %53, label %55

53:                                               ; preds = %52
  %54 = call zeroext i1 @errstart_cold(i32 noundef 21, ptr noundef null) #10
  br i1 %54, label %57, label %59

55:                                               ; preds = %52
  %56 = call zeroext i1 @errstart(i32 noundef 21, ptr noundef null)
  br i1 %56, label %57, label %59

57:                                               ; preds = %55, %53
  %58 = call i32 (ptr, ...) @errmsg_internal(ptr noundef @.str)
  call void @errfinish(ptr noundef @.str.1, i32 noundef 157, ptr noundef @__func__.LocalBufferAlloc)
  br label %59

59:                                               ; preds = %57, %55, %53
  unreachable

60:                                               ; No predecessors!
  br label %61

61:                                               ; preds = %60
  br label %62

62:                                               ; preds = %61, %40
  %63 = load i32, ptr %13, align 4
  %64 = load ptr, ptr %10, align 8
  %65 = getelementptr inbounds nuw %struct.LocalBufferLookupEnt, ptr %64, i32 0, i32 1
  store i32 %63, ptr %65, align 4
  %66 = load ptr, ptr %11, align 8
  %67 = getelementptr inbounds nuw %struct.BufferDesc, ptr %66, i32 0, i32 0
  call void @llvm.memcpy.p0.p0.i64(ptr align 4 %67, ptr align 4 %9, i64 20, i1 false)
  %68 = load ptr, ptr %11, align 8
  %69 = getelementptr inbounds nuw %struct.BufferDesc, ptr %68, i32 0, i32 2
  %70 = call i32 @pg_atomic_read_u32(ptr noundef %69)
  store i32 %70, ptr %15, align 4
  %71 = load i32, ptr %15, align 4
  %72 = and i32 %71, 262143
  store i32 %72, ptr %15, align 4
  %73 = load i32, ptr %15, align 4
  %74 = or i32 %73, 33816576
  store i32 %74, ptr %15, align 4
  %75 = load ptr, ptr %11, align 8
  %76 = getelementptr inbounds nuw %struct.BufferDesc, ptr %75, i32 0, i32 2
  %77 = load i32, ptr %15, align 4
  call void @pg_atomic_unlocked_write_u32(ptr noundef %76, i32 noundef %77)
  %78 = load ptr, ptr %8, align 8
  store i8 0, ptr %78, align 1
  call void @llvm.lifetime.end.p0(i64 4, ptr %15) #9
  br label %79

79:                                               ; preds = %62, %30
  %80 = load ptr, ptr %11, align 8
  call void @llvm.lifetime.end.p0(i64 1, ptr %14) #9
  call void @llvm.lifetime.end.p0(i64 4, ptr %13) #9
  call void @llvm.lifetime.end.p0(i64 4, ptr %12) #9
  call void @llvm.lifetime.end.p0(i64 8, ptr %11) #9
  call void @llvm.lifetime.end.p0(i64 8, ptr %10) #9
  call void @llvm.lifetime.end.p0(i64 20, ptr %9) #9
  ret ptr %80
}