; Function Attrs: nounwind uwtable
define dso_local ptr @LocalBufferAlloc(ptr noundef readonly captures(none) %0, i32 noundef %1, i32 noundef %2, ptr noundef writeonly captures(none) %3) local_unnamed_addr #0 {
  %5 = alloca %struct.buftag, align 4
  %6 = alloca i8, align 1
  call void @llvm.lifetime.start.p0(i64 20, ptr nonnull %5) #14
  call void @llvm.lifetime.start.p0(i64 1, ptr nonnull %6) #14
  %7 = load i32, ptr %0, align 4
  store i32 %7, ptr %5, align 4
  %8 = getelementptr inbounds nuw i8, ptr %0, i64 4
  %9 = load i32, ptr %8, align 4
  %10 = getelementptr inbounds nuw i8, ptr %5, i64 4
  store i32 %9, ptr %10, align 4
  %11 = getelementptr inbounds nuw i8, ptr %0, i64 8
  %12 = load i32, ptr %11, align 4
  %13 = getelementptr inbounds nuw i8, ptr %5, i64 8
  store i32 %12, ptr %13, align 4
  %14 = getelementptr inbounds nuw i8, ptr %5, i64 12
  store i32 %1, ptr %14, align 4
  %15 = getelementptr inbounds nuw i8, ptr %5, i64 16
  store i32 %2, ptr %15, align 4
  %16 = load ptr, ptr @LocalBufHash, align 8
  %17 = icmp eq ptr %16, null
  br i1 %17, label %18, label %19

18:                                               ; preds = %4
  tail call fastcc void @InitLocalBuffers()
  br label %19

19:                                               ; preds = %18, %4
  %20 = load ptr, ptr @CurrentResourceOwner, align 8
  tail call void @ResourceOwnerEnlarge(ptr noundef %20) #14
  %21 = load ptr, ptr @LocalBufHash, align 8
  %22 = call ptr @hash_search(ptr noundef %21, ptr noundef nonnull %5, i32 noundef 0, ptr noundef null) #14
  %.not = icmp eq ptr %22, null
  br i1 %.not, label %53, label %23

23:                                               ; preds = %19
  %24 = getelementptr inbounds nuw i8, ptr %22, i64 20
  %25 = load i32, ptr %24, align 4
  %26 = load ptr, ptr @LocalBufferDescriptors, align 8
  %27 = zext i32 %25 to i64
  %28 = getelementptr inbounds nuw %struct.BufferDesc, ptr %26, i64 %27
  %29 = getelementptr i8, ptr %28, i64 20
  %.val.i = load i32, ptr %29, align 4
  %30 = sub i32 -2, %.val.i
  %31 = getelementptr inbounds nuw i8, ptr %28, i64 24
  %32 = load volatile i32, ptr %31, align 4
  %33 = load ptr, ptr @LocalRefCount, align 8
  %34 = sext i32 %30 to i64
  %35 = getelementptr inbounds i32, ptr %33, i64 %34
  %36 = load i32, ptr %35, align 4
  %37 = icmp eq i32 %36, 0
  br i1 %37, label %38, label %PinLocalBuffer.exit

38:                                               ; preds = %23
  %39 = load i32, ptr @NLocalPinnedBuffers, align 4
  %40 = add i32 %39, 1
  store i32 %40, ptr @NLocalPinnedBuffers, align 4
  %41 = and i32 %32, 3932160
  %42 = icmp samesign ult i32 %41, 1310720
  br i1 %42, label %43, label %PinLocalBuffer.exit

43:                                               ; preds = %38
  %44 = add i32 %32, 262144
  store volatile i32 %44, ptr %31, align 4
  %.pre.i = load i32, ptr %35, align 4
  br label %PinLocalBuffer.exit

PinLocalBuffer.exit:                              ; preds = %23, %38, %43
  %45 = phi i32 [ %.pre.i, %43 ], [ 0, %38 ], [ %36, %23 ]
  %.0.i = phi i32 [ %44, %43 ], [ %32, %38 ], [ %32, %23 ]
  %46 = add i32 %45, 1
  store i32 %46, ptr %35, align 4
  %47 = load ptr, ptr @CurrentResourceOwner, align 8
  %.val12.i = load i32, ptr %29, align 4
  %48 = add i32 %.val12.i, 1
  %49 = sext i32 %48 to i64
  call void @ResourceOwnerRemember(ptr noundef %47, i64 noundef %49, ptr noundef nonnull @buffer_pin_resowner_desc) #14
  %50 = lshr i32 %.0.i, 24
  %51 = trunc nuw i32 %50 to i8
  %52 = and i8 %51, 1
  br label %72

53:                                               ; preds = %19
  %54 = call fastcc i32 @GetLocalVictimBuffer()
  %55 = load ptr, ptr @LocalBufferDescriptors, align 8
  %56 = load ptr, ptr @LocalBufHash, align 8
  %57 = call ptr @hash_search(ptr noundef %56, ptr noundef nonnull %5, i32 noundef 1, ptr noundef nonnull %6) #14
  %58 = load i8, ptr %6, align 1, !range !6, !noundef !7
  %59 = trunc nuw i8 %58 to i1
  br i1 %59, label %60, label %63

60:                                               ; preds = %53
  %61 = call zeroext i1 @errstart_cold(i32 noundef 21, ptr noundef null) #15
  call void @llvm.assume(i1 %61)
  %62 = call i32 (ptr, ...) @errmsg_internal(ptr noundef nonnull @.str) #14
  call void @errfinish(ptr noundef nonnull @.str.1, i32 noundef 157, ptr noundef nonnull @__func__.LocalBufferAlloc) #14
  unreachable

63:                                               ; preds = %53
  %64 = xor i32 %54, -1
  %65 = zext i32 %64 to i64
  %66 = getelementptr inbounds nuw %struct.BufferDesc, ptr %55, i64 %65
  %67 = getelementptr inbounds nuw i8, ptr %57, i64 20
  store i32 %64, ptr %67, align 4
  call void @llvm.memcpy.p0.p0.i64(ptr noundef nonnull align 4 dereferenceable(20) %66, ptr noundef nonnull align 4 dereferenceable(20) %5, i64 20, i1 false)
  %68 = getelementptr inbounds nuw i8, ptr %66, i64 24
  %69 = load volatile i32, ptr %68, align 4
  %70 = and i32 %69, 262143
  %71 = or disjoint i32 %70, 33816576
  store volatile i32 %71, ptr %68, align 4
  br label %72

72:                                               ; preds = %63, %PinLocalBuffer.exit
  %storemerge = phi i8 [ 0, %63 ], [ %52, %PinLocalBuffer.exit ]
  %.0 = phi ptr [ %66, %63 ], [ %28, %PinLocalBuffer.exit ]
  store i8 %storemerge, ptr %3, align 1
  call void @llvm.lifetime.end.p0(i64 1, ptr nonnull %6) #14
  call void @llvm.lifetime.end.p0(i64 20, ptr nonnull %5) #14
  ret ptr %.0
}